target datalayout = "e-m:e-p270:32:32-p271:32:32-p272:64:64-i64:64-i128:128-f80:128-n8:16:32:64-S128"
target triple = "x86_64-pc-linux-gnu"

; Function Attrs: nounwind uwtable
define dso_local i64 @pg_strftime(ptr noundef %0, i64 noundef %1, ptr noundef %2, ptr noundef %3) #0 {
  %5 = alloca i64, align 8
  %6 = alloca ptr, align 8
  %7 = alloca i64, align 8
  %8 = alloca ptr, align 8
  %9 = alloca ptr, align 8
  %10 = alloca ptr, align 8
  %11 = alloca i32, align 4
  %12 = alloca i32, align 4
  %13 = alloca i32, align 4
  store ptr %0, ptr %6, align 8
  store i64 %1, ptr %7, align 8
  store ptr %2, ptr %8, align 8
  store ptr %3, ptr %9, align 8
  call void @llvm.lifetime.start.p0(i64 8, ptr %10) #4
  call void @llvm.lifetime.start.p0(i64 4, ptr %11) #4
  %14 = call ptr @__errno_location() #5
  %15 = load i32, ptr %14, align 4
  store i32 %15, ptr %11, align 4
  call void @llvm.lifetime.start.p0(i64 4, ptr %12) #4
  store i32 0, ptr %12, align 4
  %16 = load ptr, ptr %8, align 8
  %17 = load ptr, ptr %9, align 8
  %18 = load ptr, ptr %6, align 8
  %19 = load ptr, ptr %6, align 8
  %20 = load i64, ptr %7, align 8
  %21 = getelementptr inbounds nuw i8, ptr %19, i64 %20
  %22 = call ptr @_fmt(ptr noundef %16, ptr noundef %17, ptr noundef %18, ptr noundef %21, ptr noundef %12)
  store ptr %22, ptr %10, align 8
  %23 = load ptr, ptr %10, align 8
  %24 = icmp ne ptr %23, null
  br i1 %24, label %27, label %25

25:                                               ; preds = %4
  %26 = call ptr @__errno_location() #5
  store i32 75, ptr %26, align 4
  store i64 0, ptr %5, align 8
  store i32 1, ptr %13, align 4
  br label %44

27:                                               ; preds = %4
  %28 = load ptr, ptr %10, align 8
  %29 = load ptr, ptr %6, align 8
  %30 = load i64, ptr %7, align 8
  %31 = getelementptr inbounds nuw i8, ptr %29, i64 %30
  %32 = icmp eq ptr %28, %31
  br i1 %32, label %33, label %35

33:                                               ; preds = %27
  %34 = call ptr @__errno_location() #5
  store i32 34, ptr %34, align 4
  store i64 0, ptr %5, align 8
  store i32 1, ptr %13, align 4
  br label %44

35:                                               ; preds = %27
  %36 = load ptr, ptr %10, align 8
  store i8 0, ptr %36, align 1
  %37 = load i32, ptr %11, align 4
  %38 = call ptr @__errno_location() #5
  store i32 %37, ptr %38, align 4
  %39 = load ptr, ptr %10, align 8
  %40 = load ptr, ptr %6, align 8
  %41 = ptrtoint ptr %39 to i64
  %42 = ptrtoint ptr %40 to i64
  %43 = sub i64 %41, %42
  store i64 %43, ptr %5, align 8
  store i32 1, ptr %13, align 4
  br label %44

44:                                               ; preds = %35, %33, %25
  call void @llvm.lifetime.end.p0(i64 4, ptr %12) #4
  call void @llvm.lifetime.end.p0(i64 4, ptr %11) #4
  call void @llvm.lifetime.end.p0(i64 8, ptr %10) #4
  %45 = load i64, ptr %5, align 8
  ret i64 %45
}