; Function Attrs: nounwind uwtable
define dso_local i64 @pg_strftime(ptr noundef %0, i64 noundef %1, ptr noundef readonly captures(none) %2, ptr noundef %3) local_unnamed_addr #0 {
  %5 = alloca i32, align 4
  %6 = tail call ptr @__errno_location() #5
  %7 = load i32, ptr %6, align 4
  call void @llvm.lifetime.start.p0(i64 4, ptr nonnull %5) #6
  store i32 0, ptr %5, align 4
  %8 = getelementptr inbounds nuw i8, ptr %0, i64 %1
  %9 = call fastcc ptr @_fmt(ptr noundef %2, ptr noundef %3, ptr noundef %0, ptr noundef %8, ptr noundef %5)
  %.not = icmp eq ptr %9, null
  br i1 %.not, label %10, label %11

10:                                               ; preds = %4
  store i32 75, ptr %6, align 4
  br label %18

11:                                               ; preds = %4
  %12 = icmp eq ptr %9, %8
  br i1 %12, label %13, label %14

13:                                               ; preds = %11
  store i32 34, ptr %6, align 4
  br label %18

14:                                               ; preds = %11
  store i8 0, ptr %9, align 1
  store i32 %7, ptr %6, align 4
  %15 = ptrtoint ptr %9 to i64
  %16 = ptrtoint ptr %0 to i64
  %17 = sub i64 %15, %16
  br label %18

18:                                               ; preds = %14, %13, %10
  %.0 = phi i64 [ 0, %13 ], [ %17, %14 ], [ 0, %10 ]
  call void @llvm.lifetime.end.p0(i64 4, ptr nonnull %5) #6
  ret i64 %.0
}